; Function Attrs: mustprogress nofree norecurse nosync nounwind willreturn memory(argmem: write) uwtable
define void @_ZN5faiss15LinearTransformC2Eiib(ptr noundef nonnull writeonly align 8 captures(none) dereferenceable(73) initializes((0, 19), (24, 73)) %0, i32 noundef %1, i32 noundef %2, i1 noundef zeroext %3) unnamed_addr #17 align 2 {
  %5 = zext i1 %3 to i8
  %6 = getelementptr inbounds nuw i8, ptr %0, i64 8
  store i32 %1, ptr %6, align 8, !tbaa !37
  %7 = getelementptr inbounds nuw i8, ptr %0, i64 12
  store i32 %2, ptr %7, align 4, !tbaa !29
  %8 = getelementptr inbounds nuw i8, ptr %0, i64 16
  store ptr getelementptr inbounds nuw inrange(-16, 48) (i8, ptr @_ZTVN5faiss15LinearTransformE, i64 16), ptr %0, align 8, !tbaa !41
  %9 = getelementptr inbounds nuw i8, ptr %0, i64 17
  store i8 %5, ptr %9, align 1, !tbaa !22
  %10 = getelementptr inbounds nuw i8, ptr %0, i64 18
  store i8 0, ptr %10, align 2, !tbaa !39
  %11 = getelementptr inbounds nuw i8, ptr %0, i64 24
  store i8 0, ptr %8, align 8, !tbaa !16
  tail call void @llvm.memset.p0.i64(ptr noundef nonnull align 8 dereferenceable(49) %11, i8 0, i64 49, i1 false)
  ret void
}